target datalayout = "e-m:e-p270:32:32-p271:32:32-p272:64:64-i64:64-i128:128-f80:128-n8:16:32:64-S128"
target triple = "x86_64-pc-linux-gnu"

%struct.AVRational = type { i32, i32 }
%struct.SyncQueue = type { i32, ptr, i32, i32, i32, i64, ptr, i32, i32, i64 }
%struct.SyncQueueStream = type { ptr, %struct.AVRational, i64, i64, i32, i32, i64, i64, i64, i32 }

; Function Attrs: nounwind uwtable
define i32 @sq_add_stream(ptr noundef %0, i32 noundef %1) #0 {
  %3 = alloca i32, align 4
  %4 = alloca ptr, align 8
  %5 = alloca i32, align 4
  %6 = alloca ptr, align 8
  %7 = alloca ptr, align 8
  %8 = alloca i32, align 4
  %9 = alloca %struct.AVRational, align 4
  store ptr %0, ptr %4, align 8, !tbaa !4
  store i32 %1, ptr %5, align 4, !tbaa !9
  call void @llvm.lifetime.start.p0(i64 8, ptr %6) #8
  call void @llvm.lifetime.start.p0(i64 8, ptr %7) #8
  %10 = load ptr, ptr %4, align 8, !tbaa !4
  %11 = getelementptr inbounds nuw %struct.SyncQueue, ptr %10, i32 0, i32 6
  %12 = load ptr, ptr %11, align 8, !tbaa !15
  %13 = load ptr, ptr %4, align 8, !tbaa !4
  %14 = getelementptr inbounds nuw %struct.SyncQueue, ptr %13, i32 0, i32 7
  %15 = load i32, ptr %14, align 8, !tbaa !11
  %16 = add i32 %15, 1
  %17 = zext i32 %16 to i64
  %18 = call ptr @av_realloc_array(ptr noundef %12, i64 noundef %17, i64 noundef 72)
  store ptr %18, ptr %6, align 8, !tbaa !16
  %19 = load ptr, ptr %6, align 8, !tbaa !16
  %20 = icmp ne ptr %19, null
  br i1 %20, label %22, label %21

21:                                               ; preds = %2
  store i32 -12, ptr %3, align 4
  store i32 1, ptr %8, align 4
  br label %73

22:                                               ; preds = %2
  %23 = load ptr, ptr %6, align 8, !tbaa !16
  %24 = load ptr, ptr %4, align 8, !tbaa !4
  %25 = getelementptr inbounds nuw %struct.SyncQueue, ptr %24, i32 0, i32 6
  store ptr %23, ptr %25, align 8, !tbaa !15
  %26 = load ptr, ptr %4, align 8, !tbaa !4
  %27 = getelementptr inbounds nuw %struct.SyncQueue, ptr %26, i32 0, i32 6
  %28 = load ptr, ptr %27, align 8, !tbaa !15
  %29 = load ptr, ptr %4, align 8, !tbaa !4
  %30 = getelementptr inbounds nuw %struct.SyncQueue, ptr %29, i32 0, i32 7
  %31 = load i32, ptr %30, align 8, !tbaa !11
  %32 = zext i32 %31 to i64
  %33 = getelementptr inbounds nuw %struct.SyncQueueStream, ptr %28, i64 %32
  store ptr %33, ptr %7, align 8, !tbaa !16
  %34 = load ptr, ptr %7, align 8, !tbaa !16
  call void @llvm.memset.p0.i64(ptr align 8 %34, i8 0, i64 72, i1 false)
  %35 = load ptr, ptr %4, align 8, !tbaa !4
  %36 = getelementptr inbounds nuw %struct.SyncQueue, ptr %35, i32 0, i32 0
  %37 = load i32, ptr %36, align 8, !tbaa !37
  %38 = icmp eq i32 %37, 1
  br i1 %38, label %39, label %41

39:                                               ; preds = %22
  %40 = call ptr @av_container_fifo_alloc_avframe(i32 noundef 0)
  br label %43

41:                                               ; preds = %22
  %42 = call ptr @av_container_fifo_alloc_avpacket(i32 noundef 0)
  br label %43

43:                                               ; preds = %41, %39
  %44 = phi ptr [ %40, %39 ], [ %42, %41 ]
  %45 = load ptr, ptr %7, align 8, !tbaa !16
  %46 = getelementptr inbounds nuw %struct.SyncQueueStream, ptr %45, i32 0, i32 0
  store ptr %44, ptr %46, align 8, !tbaa !36
  %47 = load ptr, ptr %7, align 8, !tbaa !16
  %48 = getelementptr inbounds nuw %struct.SyncQueueStream, ptr %47, i32 0, i32 0
  %49 = load ptr, ptr %48, align 8, !tbaa !36
  %50 = icmp ne ptr %49, null
  br i1 %50, label %52, label %51

51:                                               ; preds = %43
  store i32 -12, ptr %3, align 4
  store i32 1, ptr %8, align 4
  br label %73

52:                                               ; preds = %43
  %53 = load ptr, ptr %7, align 8, !tbaa !16
  %54 = getelementptr inbounds nuw %struct.SyncQueueStream, ptr %53, i32 0, i32 1
  %55 = getelementptr inbounds nuw %struct.AVRational, ptr %9, i32 0, i32 0
  store i32 1, ptr %55, align 4, !tbaa !32
  %56 = getelementptr inbounds nuw %struct.AVRational, ptr %9, i32 0, i32 1
  store i32 1, ptr %56, align 4, !tbaa !33
  call void @llvm.memcpy.p0.p0.i64(ptr align 8 %54, ptr align 4 %9, i64 8, i1 false), !tbaa.struct !50
  %57 = load ptr, ptr %7, align 8, !tbaa !16
  %58 = getelementptr inbounds nuw %struct.SyncQueueStream, ptr %57, i32 0, i32 3
  store i64 -9223372036854775808, ptr %58, align 8, !tbaa !43
  %59 = load ptr, ptr %7, align 8, !tbaa !16
  %60 = getelementptr inbounds nuw %struct.SyncQueueStream, ptr %59, i32 0, i32 8
  store i64 -1, ptr %60, align 8, !tbaa !42
  %61 = load i32, ptr %5, align 4, !tbaa !9
  %62 = load ptr, ptr %7, align 8, !tbaa !16
  %63 = getelementptr inbounds nuw %struct.SyncQueueStream, ptr %62, i32 0, i32 4
  store i32 %61, ptr %63, align 8, !tbaa !44
  %64 = load i32, ptr %5, align 4, !tbaa !9
  %65 = load ptr, ptr %4, align 8, !tbaa !4
  %66 = getelementptr inbounds nuw %struct.SyncQueue, ptr %65, i32 0, i32 8
  %67 = load i32, ptr %66, align 4, !tbaa !69
  %68 = or i32 %67, %64
  store i32 %68, ptr %66, align 4, !tbaa !69
  %69 = load ptr, ptr %4, align 8, !tbaa !4
  %70 = getelementptr inbounds nuw %struct.SyncQueue, ptr %69, i32 0, i32 7
  %71 = load i32, ptr %70, align 8, !tbaa !11
  %72 = add i32 %71, 1
  store i32 %72, ptr %70, align 8, !tbaa !11
  store i32 %71, ptr %3, align 4
  store i32 1, ptr %8, align 4
  br label %73

73:                                               ; preds = %52, %51, %21
  call void @llvm.lifetime.end.p0(i64 8, ptr %7) #8
  call void @llvm.lifetime.end.p0(i64 8, ptr %6) #8
  %74 = load i32, ptr %3, align 4
  ret i32 %74
}