; Function Attrs: nounwind uwtable
define i32 @sq_add_stream(ptr noundef captures(none) %0, i32 noundef %1) local_unnamed_addr #0 {
  %3 = getelementptr inbounds nuw i8, ptr %0, i64 40
  %4 = load ptr, ptr %3, align 8, !tbaa !12
  %5 = getelementptr inbounds nuw i8, ptr %0, i64 48
  %6 = load i32, ptr %5, align 8, !tbaa !4
  %7 = add i32 %6, 1
  %8 = zext i32 %7 to i64
  %9 = tail call ptr @av_realloc_array(ptr noundef %4, i64 noundef %8, i64 noundef 72) #7
  %.not = icmp eq ptr %9, null
  br i1 %.not, label %32, label %10

10:                                               ; preds = %2
  store ptr %9, ptr %3, align 8, !tbaa !12
  %11 = load i32, ptr %5, align 8, !tbaa !4
  %12 = zext i32 %11 to i64
  %13 = getelementptr inbounds nuw %struct.SyncQueueStream, ptr %9, i64 %12
  tail call void @llvm.memset.p0.i64(ptr noundef nonnull align 8 dereferenceable(72) %13, i8 0, i64 72, i1 false)
  %14 = load i32, ptr %0, align 8, !tbaa !18
  %15 = icmp eq i32 %14, 1
  br i1 %15, label %16, label %18

16:                                               ; preds = %10
  %17 = tail call ptr @av_container_fifo_alloc_avframe(i32 noundef 0) #7
  br label %20

18:                                               ; preds = %10
  %19 = tail call ptr @av_container_fifo_alloc_avpacket(i32 noundef 0) #7
  br label %20

20:                                               ; preds = %18, %16
  %21 = phi ptr [ %17, %16 ], [ %19, %18 ]
  store ptr %21, ptr %13, align 8, !tbaa !22
  %.not20 = icmp eq ptr %21, null
  br i1 %.not20, label %32, label %22

22:                                               ; preds = %20
  %23 = getelementptr inbounds nuw i8, ptr %13, i64 8
  store i32 1, ptr %23, align 8, !tbaa !19
  %.sroa.2.0..sroa_idx = getelementptr inbounds nuw i8, ptr %13, i64 12
  store i32 1, ptr %.sroa.2.0..sroa_idx, align 4, !tbaa !19
  %24 = getelementptr inbounds nuw i8, ptr %13, i64 24
  store i64 -9223372036854775808, ptr %24, align 8, !tbaa !23
  %25 = getelementptr inbounds nuw i8, ptr %13, i64 56
  store i64 -1, ptr %25, align 8, !tbaa !40
  %26 = getelementptr inbounds nuw i8, ptr %13, i64 32
  store i32 %1, ptr %26, align 8, !tbaa !41
  %27 = getelementptr inbounds nuw i8, ptr %0, i64 52
  %28 = load i32, ptr %27, align 4, !tbaa !48
  %29 = or i32 %28, %1
  store i32 %29, ptr %27, align 4, !tbaa !48
  %30 = load i32, ptr %5, align 8, !tbaa !4
  %31 = add i32 %30, 1
  store i32 %31, ptr %5, align 8, !tbaa !4
  br label %32

32:                                               ; preds = %20, %2, %22
  %.0 = phi i32 [ %30, %22 ], [ -12, %2 ], [ -12, %20 ]
  ret i32 %.0
}